; Function Attrs: nounwind uwtable
define internal range(i32 1, 4) i32 @f_flush(ptr noundef %0) #0 {
  %2 = tail call ptr @luaL_checkudata(ptr noundef %0, i32 noundef 1, ptr noundef nonnull @.str.5) #9
  %3 = load ptr, ptr %2, align 8, !tbaa !4
  %4 = icmp eq ptr %3, null
  br i1 %4, label %5, label %tofile.exit

5:                                                ; preds = %1
  %6 = tail call i32 (ptr, ptr, ...) @luaL_error(ptr noundef %0, ptr noundef nonnull @.str.16) #9
  %.pre.i = load ptr, ptr %2, align 8, !tbaa !4
  br label %tofile.exit

tofile.exit:                                      ; preds = %1, %5
  %7 = phi ptr [ %.pre.i, %5 ], [ %3, %1 ]
  %8 = tail call i32 @fflush(ptr noundef %7)
  %.not = icmp eq i32 %8, 0
  br i1 %.not, label %9, label %10

9:                                                ; preds = %tofile.exit
  tail call void @lua_pushboolean(ptr noundef %0, i32 noundef 1) #9
  br label %pushresult.exit

10:                                               ; preds = %tofile.exit
  %11 = tail call ptr @__errno_location() #10
  %12 = load i32, ptr %11, align 4, !tbaa !9
  tail call void @lua_pushnil(ptr noundef %0) #9
  %13 = tail call ptr @strerror(i32 noundef %12) #9
  %14 = tail call ptr (ptr, ptr, ...) @lua_pushfstring(ptr noundef %0, ptr noundef nonnull @.str.19, ptr noundef %13) #9
  %15 = sext i32 %12 to i64
  tail call void @lua_pushinteger(ptr noundef %0, i64 noundef %15) #9
  br label %pushresult.exit

pushresult.exit:                                  ; preds = %9, %10
  %.0.i = phi i32 [ 1, %9 ], [ 3, %10 ]
  ret i32 %.0.i
}